target datalayout = "e-m:e-p270:32:32-p271:32:32-p272:64:64-i64:64-i128:128-f80:128-n8:16:32:64-S128"
target triple = "x86_64-pc-linux-gnu"

; Function Attrs: mustprogress nounwind uwtable
define internal void @_ZNSt14_Function_base13_Base_managerISt5_BindIFZN12_GLOBAL__N_120InProcessThinBackend5startEjN4llvm13BitcodeModuleERKNS4_16FunctionImporter11ImportMapTyERKNS4_8DenseSetINS4_9ValueInfoENS4_12DenseMapInfoISB_vEEEERKSt3mapImNS4_11GlobalValue12LinkageTypesESt4lessImESaISt4pairIKmSJ_EEERNS4_9MapVectorINS4_9StringRefES5_NS4_8DenseMapISU_jNSC_ISU_vEENS4_6detail12DenseMapPairISU_jEEEENS4_11SmallVectorISM_ISU_S5_ELj0EEEEEEUlS5_RNS4_18ModuleSummaryIndexES9_SG_SS_RKNSV_ImPNS4_18GlobalValueSummaryENSC_ImvEENSY_ImS19_EEEES15_E_S5_St17reference_wrapperIS16_ES1G_IS8_ES1G_ISF_ES1G_ISR_ES1G_IS1D_ES1G_IS14_EEEE9_M_createIRKS1O_EEvRSt9_Any_dataOT_St17integral_constantIbLb0EE(ptr noundef nonnull align 8 dereferenceable(16) %0, ptr noundef nonnull align 8 dereferenceable(128) %1) #1 align 2 {
  %3 = alloca ptr, align 8
  %4 = alloca ptr, align 8
  store ptr %0, ptr %3, align 8
  store ptr %1, ptr %4, align 8
  %5 = call noalias noundef nonnull ptr @_Znwm(i64 noundef 128) #19
  %6 = load ptr, ptr %4, align 8
  call void @llvm.memcpy.p0.p0.i64(ptr align 16 %5, ptr align 8 %6, i64 128, i1 false)
  %7 = load ptr, ptr %3, align 8
  %8 = call noundef nonnull align 8 dereferenceable(8) ptr @_ZNSt9_Any_data9_M_accessIPSt5_BindIFZN12_GLOBAL__N_120InProcessThinBackend5startEjN4llvm13BitcodeModuleERKNS4_16FunctionImporter11ImportMapTyERKNS4_8DenseSetINS4_9ValueInfoENS4_12DenseMapInfoISB_vEEEERKSt3mapImNS4_11GlobalValue12LinkageTypesESt4lessImESaISt4pairIKmSJ_EEERNS4_9MapVectorINS4_9StringRefES5_NS4_8DenseMapISU_jNSC_ISU_vEENS4_6detail12DenseMapPairISU_jEEEENS4_11SmallVectorISM_ISU_S5_ELj0EEEEEEUlS5_RNS4_18ModuleSummaryIndexES9_SG_SS_RKNSV_ImPNS4_18GlobalValueSummaryENSC_ImvEENSY_ImS19_EEEES15_E_S5_St17reference_wrapperIS16_ES1G_IS8_ES1G_ISF_ES1G_ISR_ES1G_IS1D_ES1G_IS14_EEEEERT_v(ptr noundef nonnull align 8 dereferenceable(16) %7) #2
  store ptr %5, ptr %8, align 8
  ret void
}

; Function Attrs: mustprogress nounwind uwtable
define linkonce_odr hidden noundef ptr @_ZNKSt9_Any_data9_M_accessEv(ptr noundef nonnull align 8 dereferenceable(16) %0) #1 comdat align 2 {
  %2 = alloca ptr, align 8
  store ptr %0, ptr %2, align 8
  %3 = load ptr, ptr %2, align 8
  %4 = getelementptr inbounds [16 x i8], ptr %3, i64 0, i64 0
  ret ptr %4
}

; Function Attrs: mustprogress nounwind uwtable
define internal void @_ZNSt14_Function_base13_Base_managerISt5_BindIFZN12_GLOBAL__N_120InProcessThinBackend5startEjN4llvm13BitcodeModuleERKNS4_16FunctionImporter11ImportMapTyERKNS4_8DenseSetINS4_9ValueInfoENS4_12DenseMapInfoISB_vEEEERKSt3mapImNS4_11GlobalValue12LinkageTypesESt4lessImESaISt4pairIKmSJ_EEERNS4_9MapVectorINS4_9StringRefES5_NS4_8DenseMapISU_jNSC_ISU_vEENS4_6detail12DenseMapPairISU_jEEEENS4_11SmallVectorISM_ISU_S5_ELj0EEEEEEUlS5_RNS4_18ModuleSummaryIndexES9_SG_SS_RKNSV_ImPNS4_18GlobalValueSummaryENSC_ImvEENSY_ImS19_EEEES15_E_S5_St17reference_wrapperIS16_ES1G_IS8_ES1G_ISF_ES1G_ISR_ES1G_IS1D_ES1G_IS14_EEEE10_M_destroyERSt9_Any_dataSt17integral_constantIbLb0EE(ptr noundef nonnull align 8 dereferenceable(16) %0) #1 align 2 {
  %2 = alloca ptr, align 8
  store ptr %0, ptr %2, align 8
  %3 = load ptr, ptr %2, align 8
  %4 = call noundef nonnull align 8 dereferenceable(8) ptr @_ZNSt9_Any_data9_M_accessIPSt5_BindIFZN12_GLOBAL__N_120InProcessThinBackend5startEjN4llvm13BitcodeModuleERKNS4_16FunctionImporter11ImportMapTyERKNS4_8DenseSetINS4_9ValueInfoENS4_12DenseMapInfoISB_vEEEERKSt3mapImNS4_11GlobalValue12LinkageTypesESt4lessImESaISt4pairIKmSJ_EEERNS4_9MapVectorINS4_9StringRefES5_NS4_8DenseMapISU_jNSC_ISU_vEENS4_6detail12DenseMapPairISU_jEEEENS4_11SmallVectorISM_ISU_S5_ELj0EEEEEEUlS5_RNS4_18ModuleSummaryIndexES9_SG_SS_RKNSV_ImPNS4_18GlobalValueSummaryENSC_ImvEENSY_ImS19_EEEES15_E_S5_St17reference_wrapperIS16_ES1G_IS8_ES1G_ISF_ES1G_ISR_ES1G_IS1D_ES1G_IS14_EEEEERT_v(ptr noundef nonnull align 8 dereferenceable(16) %3) #2
  %5 = load ptr, ptr %4, align 8
  %6 = icmp eq ptr %5, null
  br i1 %6, label %8, label %7

7:                                                ; preds = %1
  call void @_ZdlPvm(ptr noundef %5, i64 noundef 128) #21
  br label %8

8:                                                ; preds = %7, %1
  ret void
}

; Function Attrs: mustprogress nounwind uwtable
define internal void @_ZNSt14_Function_base13_Base_managerISt5_BindIFZN12_GLOBAL__N_120InProcessThinBackend5startEjN4llvm13BitcodeModuleERKNS4_16FunctionImporter11ImportMapTyERKNS4_8DenseSetINS4_9ValueInfoENS4_12DenseMapInfoISB_vEEEERKSt3mapImNS4_11GlobalValue12LinkageTypesESt4lessImESaISt4pairIKmSJ_EEERNS4_9MapVectorINS4_9StringRefES5_NS4_8DenseMapISU_jNSC_ISU_vEENS4_6detail12DenseMapPairISU_jEEEENS4_11SmallVectorISM_ISU_S5_ELj0EEEEEEUlS5_RNS4_18ModuleSummaryIndexES9_SG_SS_RKNSV_ImPNS4_18GlobalValueSummaryENSC_ImvEENSY_ImS19_EEEES15_E_S5_St17reference_wrapperIS16_ES1G_IS8_ES1G_ISF_ES1G_ISR_ES1G_IS1D_ES1G_IS14_EEEE15_M_init_functorIRKS1O_EEvRSt9_Any_dataOT_(ptr noundef nonnull align 8 dereferenceable(16) %0, ptr noundef nonnull align 8 dereferenceable(128) %1) #1 align 2 {
  %3 = alloca ptr, align 8
  %4 = alloca ptr, align 8
  store ptr %0, ptr %3, align 8
  store ptr %1, ptr %4, align 8
  %5 = load ptr, ptr %3, align 8
  %6 = load ptr, ptr %4, align 8
  call void @_ZNSt14_Function_base13_Base_managerISt5_BindIFZN12_GLOBAL__N_120InProcessThinBackend5startEjN4llvm13BitcodeModuleERKNS4_16FunctionImporter11ImportMapTyERKNS4_8DenseSetINS4_9ValueInfoENS4_12DenseMapInfoISB_vEEEERKSt3mapImNS4_11GlobalValue12LinkageTypesESt4lessImESaISt4pairIKmSJ_EEERNS4_9MapVectorINS4_9StringRefES5_NS4_8DenseMapISU_jNSC_ISU_vEENS4_6detail12DenseMapPairISU_jEEEENS4_11SmallVectorISM_ISU_S5_ELj0EEEEEEUlS5_RNS4_18ModuleSummaryIndexES9_SG_SS_RKNSV_ImPNS4_18GlobalValueSummaryENSC_ImvEENSY_ImS19_EEEES15_E_S5_St17reference_wrapperIS16_ES1G_IS8_ES1G_ISF_ES1G_ISR_ES1G_IS1D_ES1G_IS14_EEEE9_M_createIRKS1O_EEvRSt9_Any_dataOT_St17integral_constantIbLb0EE(ptr noundef nonnull align 8 dereferenceable(16) %5, ptr noundef nonnull align 8 dereferenceable(128) %6)
  ret void
}

; Function Attrs: mustprogress nounwind uwtable
define linkonce_odr hidden noundef nonnull align 8 dereferenceable(8) ptr @_ZNSt9_Any_data9_M_accessIPKSt9type_infoEERT_v(ptr noundef nonnull align 8 dereferenceable(16) %0) #1 comdat align 2 {
  %2 = alloca ptr, align 8
  store ptr %0, ptr %2, align 8
  %3 = load ptr, ptr %2, align 8
  %4 = call noundef ptr @_ZNSt9_Any_data9_M_accessEv(ptr noundef nonnull align 8 dereferenceable(16) %3) #2
  ret ptr %4
}

; Function Attrs: mustprogress nounwind uwtable
define linkonce_odr hidden noundef ptr @_ZNSt9_Any_data9_M_accessEv(ptr noundef nonnull align 8 dereferenceable(16) %0) #1 comdat align 2 {
  %2 = alloca ptr, align 8
  store ptr %0, ptr %2, align 8
  %3 = load ptr, ptr %2, align 8
  %4 = getelementptr inbounds [16 x i8], ptr %3, i64 0, i64 0
  ret ptr %4
}

; Function Attrs: mustprogress nounwind uwtable
define internal noundef nonnull align 8 dereferenceable(8) ptr @_ZNKSt9_Any_data9_M_accessIPSt5_BindIFZN12_GLOBAL__N_120InProcessThinBackend5startEjN4llvm13BitcodeModuleERKNS4_16FunctionImporter11ImportMapTyERKNS4_8DenseSetINS4_9ValueInfoENS4_12DenseMapInfoISB_vEEEERKSt3mapImNS4_11GlobalValue12LinkageTypesESt4lessImESaISt4pairIKmSJ_EEERNS4_9MapVectorINS4_9StringRefES5_NS4_8DenseMapISU_jNSC_ISU_vEENS4_6detail12DenseMapPairISU_jEEEENS4_11SmallVectorISM_ISU_S5_ELj0EEEEEEUlS5_RNS4_18ModuleSummaryIndexES9_SG_SS_RKNSV_ImPNS4_18GlobalValueSummaryENSC_ImvEENSY_ImS19_EEEES15_E_S5_St17reference_wrapperIS16_ES1G_IS8_ES1G_ISF_ES1G_ISR_ES1G_IS1D_ES1G_IS14_EEEEERKT_v(ptr noundef nonnull align 8 dereferenceable(16) %0) #1 align 2 {
  %2 = alloca ptr, align 8
  store ptr %0, ptr %2, align 8
  %3 = load ptr, ptr %2, align 8
  %4 = call noundef ptr @_ZNKSt9_Any_data9_M_accessEv(ptr noundef nonnull align 8 dereferenceable(16) %3) #2
  ret ptr %4
}

; Function Attrs: mustprogress nounwind uwtable
define internal noundef zeroext i1 @_ZNSt14_Function_base13_Base_managerISt5_BindIFZN12_GLOBAL__N_120InProcessThinBackend5startEjN4llvm13BitcodeModuleERKNS4_16FunctionImporter11ImportMapTyERKNS4_8DenseSetINS4_9ValueInfoENS4_12DenseMapInfoISB_vEEEERKSt3mapImNS4_11GlobalValue12LinkageTypesESt4lessImESaISt4pairIKmSJ_EEERNS4_9MapVectorINS4_9StringRefES5_NS4_8DenseMapISU_jNSC_ISU_vEENS4_6detail12DenseMapPairISU_jEEEENS4_11SmallVectorISM_ISU_S5_ELj0EEEEEEUlS5_RNS4_18ModuleSummaryIndexES9_SG_SS_RKNSV_ImPNS4_18GlobalValueSummaryENSC_ImvEENSY_ImS19_EEEES15_E_S5_St17reference_wrapperIS16_ES1G_IS8_ES1G_ISF_ES1G_ISR_ES1G_IS1D_ES1G_IS14_EEEE10_M_managerERSt9_Any_dataRKS1Q_St18_Manager_operation(ptr noundef nonnull align 8 dereferenceable(16) %0, ptr noundef nonnull align 8 dereferenceable(16) %1, i32 noundef %2) #1 align 2 {
  %4 = alloca ptr, align 8
  %5 = alloca ptr, align 8
  %6 = alloca i32, align 4
  store ptr %0, ptr %4, align 8
  store ptr %1, ptr %5, align 8
  store i32 %2, ptr %6, align 4
  %7 = load i32, ptr %6, align 4
  switch i32 %7, label %22 [
    i32 0, label %8
    i32 1, label %11
    i32 2, label %16
    i32 3, label %20
  ]

8:                                                ; preds = %3
  %9 = load ptr, ptr %4, align 8
  %10 = call noundef nonnull align 8 dereferenceable(8) ptr @_ZNSt9_Any_data9_M_accessIPKSt9type_infoEERT_v(ptr noundef nonnull align 8 dereferenceable(16) %9) #2
  store ptr null, ptr %10, align 8
  br label %22

11:                                               ; preds = %3
  %12 = load ptr, ptr %5, align 8
  %13 = call noundef ptr @_ZNSt14_Function_base13_Base_managerISt5_BindIFZN12_GLOBAL__N_120InProcessThinBackend5startEjN4llvm13BitcodeModuleERKNS4_16FunctionImporter11ImportMapTyERKNS4_8DenseSetINS4_9ValueInfoENS4_12DenseMapInfoISB_vEEEERKSt3mapImNS4_11GlobalValue12LinkageTypesESt4lessImESaISt4pairIKmSJ_EEERNS4_9MapVectorINS4_9StringRefES5_NS4_8DenseMapISU_jNSC_ISU_vEENS4_6detail12DenseMapPairISU_jEEEENS4_11SmallVectorISM_ISU_S5_ELj0EEEEEEUlS5_RNS4_18ModuleSummaryIndexES9_SG_SS_RKNSV_ImPNS4_18GlobalValueSummaryENSC_ImvEENSY_ImS19_EEEES15_E_S5_St17reference_wrapperIS16_ES1G_IS8_ES1G_ISF_ES1G_ISR_ES1G_IS1D_ES1G_IS14_EEEE14_M_get_pointerERKSt9_Any_data(ptr noundef nonnull align 8 dereferenceable(16) %12) #2
  %14 = load ptr, ptr %4, align 8
  %15 = call noundef nonnull align 8 dereferenceable(8) ptr @_ZNSt9_Any_data9_M_accessIPSt5_BindIFZN12_GLOBAL__N_120InProcessThinBackend5startEjN4llvm13BitcodeModuleERKNS4_16FunctionImporter11ImportMapTyERKNS4_8DenseSetINS4_9ValueInfoENS4_12DenseMapInfoISB_vEEEERKSt3mapImNS4_11GlobalValue12LinkageTypesESt4lessImESaISt4pairIKmSJ_EEERNS4_9MapVectorINS4_9StringRefES5_NS4_8DenseMapISU_jNSC_ISU_vEENS4_6detail12DenseMapPairISU_jEEEENS4_11SmallVectorISM_ISU_S5_ELj0EEEEEEUlS5_RNS4_18ModuleSummaryIndexES9_SG_SS_RKNSV_ImPNS4_18GlobalValueSummaryENSC_ImvEENSY_ImS19_EEEES15_E_S5_St17reference_wrapperIS16_ES1G_IS8_ES1G_ISF_ES1G_ISR_ES1G_IS1D_ES1G_IS14_EEEEERT_v(ptr noundef nonnull align 8 dereferenceable(16) %14) #2
  store ptr %13, ptr %15, align 8
  br label %22

16:                                               ; preds = %3
  %17 = load ptr, ptr %4, align 8
  %18 = load ptr, ptr %5, align 8
  %19 = call noundef ptr @_ZNSt14_Function_base13_Base_managerISt5_BindIFZN12_GLOBAL__N_120InProcessThinBackend5startEjN4llvm13BitcodeModuleERKNS4_16FunctionImporter11ImportMapTyERKNS4_8DenseSetINS4_9ValueInfoENS4_12DenseMapInfoISB_vEEEERKSt3mapImNS4_11GlobalValue12LinkageTypesESt4lessImESaISt4pairIKmSJ_EEERNS4_9MapVectorINS4_9StringRefES5_NS4_8DenseMapISU_jNSC_ISU_vEENS4_6detail12DenseMapPairISU_jEEEENS4_11SmallVectorISM_ISU_S5_ELj0EEEEEEUlS5_RNS4_18ModuleSummaryIndexES9_SG_SS_RKNSV_ImPNS4_18GlobalValueSummaryENSC_ImvEENSY_ImS19_EEEES15_E_S5_St17reference_wrapperIS16_ES1G_IS8_ES1G_ISF_ES1G_ISR_ES1G_IS1D_ES1G_IS14_EEEE14_M_get_pointerERKSt9_Any_data(ptr noundef nonnull align 8 dereferenceable(16) %18) #2
  call void @_ZNSt14_Function_base13_Base_managerISt5_BindIFZN12_GLOBAL__N_120InProcessThinBackend5startEjN4llvm13BitcodeModuleERKNS4_16FunctionImporter11ImportMapTyERKNS4_8DenseSetINS4_9ValueInfoENS4_12DenseMapInfoISB_vEEEERKSt3mapImNS4_11GlobalValue12LinkageTypesESt4lessImESaISt4pairIKmSJ_EEERNS4_9MapVectorINS4_9StringRefES5_NS4_8DenseMapISU_jNSC_ISU_vEENS4_6detail12DenseMapPairISU_jEEEENS4_11SmallVectorISM_ISU_S5_ELj0EEEEEEUlS5_RNS4_18ModuleSummaryIndexES9_SG_SS_RKNSV_ImPNS4_18GlobalValueSummaryENSC_ImvEENSY_ImS19_EEEES15_E_S5_St17reference_wrapperIS16_ES1G_IS8_ES1G_ISF_ES1G_ISR_ES1G_IS1D_ES1G_IS14_EEEE15_M_init_functorIRKS1O_EEvRSt9_Any_dataOT_(ptr noundef nonnull align 8 dereferenceable(16) %17, ptr noundef nonnull align 8 dereferenceable(128) %19)
  br label %22

20:                                               ; preds = %3
  %21 = load ptr, ptr %4, align 8
  call void @_ZNSt14_Function_base13_Base_managerISt5_BindIFZN12_GLOBAL__N_120InProcessThinBackend5startEjN4llvm13BitcodeModuleERKNS4_16FunctionImporter11ImportMapTyERKNS4_8DenseSetINS4_9ValueInfoENS4_12DenseMapInfoISB_vEEEERKSt3mapImNS4_11GlobalValue12LinkageTypesESt4lessImESaISt4pairIKmSJ_EEERNS4_9MapVectorINS4_9StringRefES5_NS4_8DenseMapISU_jNSC_ISU_vEENS4_6detail12DenseMapPairISU_jEEEENS4_11SmallVectorISM_ISU_S5_ELj0EEEEEEUlS5_RNS4_18ModuleSummaryIndexES9_SG_SS_RKNSV_ImPNS4_18GlobalValueSummaryENSC_ImvEENSY_ImS19_EEEES15_E_S5_St17reference_wrapperIS16_ES1G_IS8_ES1G_ISF_ES1G_ISR_ES1G_IS1D_ES1G_IS14_EEEE10_M_destroyERSt9_Any_dataSt17integral_constantIbLb0EE(ptr noundef nonnull align 8 dereferenceable(16) %21)
  br label %22

22:                                               ; preds = %20, %16, %11, %8, %3
  ret i1 false
}

; Function Attrs: mustprogress nounwind uwtable
define internal noundef nonnull align 8 dereferenceable(8) ptr @_ZNSt9_Any_data9_M_accessIPSt5_BindIFZN12_GLOBAL__N_120InProcessThinBackend5startEjN4llvm13BitcodeModuleERKNS4_16FunctionImporter11ImportMapTyERKNS4_8DenseSetINS4_9ValueInfoENS4_12DenseMapInfoISB_vEEEERKSt3mapImNS4_11GlobalValue12LinkageTypesESt4lessImESaISt4pairIKmSJ_EEERNS4_9MapVectorINS4_9StringRefES5_NS4_8DenseMapISU_jNSC_ISU_vEENS4_6detail12DenseMapPairISU_jEEEENS4_11SmallVectorISM_ISU_S5_ELj0EEEEEEUlS5_RNS4_18ModuleSummaryIndexES9_SG_SS_RKNSV_ImPNS4_18GlobalValueSummaryENSC_ImvEENSY_ImS19_EEEES15_E_S5_St17reference_wrapperIS16_ES1G_IS8_ES1G_ISF_ES1G_ISR_ES1G_IS1D_ES1G_IS14_EEEEERT_v(ptr noundef nonnull align 8 dereferenceable(16) %0) #1 align 2 {
  %2 = alloca ptr, align 8
  store ptr %0, ptr %2, align 8
  %3 = load ptr, ptr %2, align 8
  %4 = call noundef ptr @_ZNSt9_Any_data9_M_accessEv(ptr noundef nonnull align 8 dereferenceable(16) %3) #2
  ret ptr %4
}

; Function Attrs: mustprogress nounwind uwtable
define internal noundef ptr @_ZNSt14_Function_base13_Base_managerISt5_BindIFZN12_GLOBAL__N_120InProcessThinBackend5startEjN4llvm13BitcodeModuleERKNS4_16FunctionImporter11ImportMapTyERKNS4_8DenseSetINS4_9ValueInfoENS4_12DenseMapInfoISB_vEEEERKSt3mapImNS4_11GlobalValue12LinkageTypesESt4lessImESaISt4pairIKmSJ_EEERNS4_9MapVectorINS4_9StringRefES5_NS4_8DenseMapISU_jNSC_ISU_vEENS4_6detail12DenseMapPairISU_jEEEENS4_11SmallVectorISM_ISU_S5_ELj0EEEEEEUlS5_RNS4_18ModuleSummaryIndexES9_SG_SS_RKNSV_ImPNS4_18GlobalValueSummaryENSC_ImvEENSY_ImS19_EEEES15_E_S5_St17reference_wrapperIS16_ES1G_IS8_ES1G_ISF_ES1G_ISR_ES1G_IS1D_ES1G_IS14_EEEE14_M_get_pointerERKSt9_Any_data(ptr noundef nonnull align 8 dereferenceable(16) %0) #1 align 2 {
  %2 = alloca ptr, align 8
  store ptr %0, ptr %2, align 8
  %3 = load ptr, ptr %2, align 8
  %4 = call noundef nonnull align 8 dereferenceable(8) ptr @_ZNKSt9_Any_data9_M_accessIPSt5_BindIFZN12_GLOBAL__N_120InProcessThinBackend5startEjN4llvm13BitcodeModuleERKNS4_16FunctionImporter11ImportMapTyERKNS4_8DenseSetINS4_9ValueInfoENS4_12DenseMapInfoISB_vEEEERKSt3mapImNS4_11GlobalValue12LinkageTypesESt4lessImESaISt4pairIKmSJ_EEERNS4_9MapVectorINS4_9StringRefES5_NS4_8DenseMapISU_jNSC_ISU_vEENS4_6detail12DenseMapPairISU_jEEEENS4_11SmallVectorISM_ISU_S5_ELj0EEEEEEUlS5_RNS4_18ModuleSummaryIndexES9_SG_SS_RKNSV_ImPNS4_18GlobalValueSummaryENSC_ImvEENSY_ImS19_EEEES15_E_S5_St17reference_wrapperIS16_ES1G_IS8_ES1G_ISF_ES1G_ISR_ES1G_IS1D_ES1G_IS14_EEEEERKT_v(ptr noundef nonnull align 8 dereferenceable(16) %3) #2
  %5 = load ptr, ptr %4, align 8
  ret ptr %5
}

; Function Attrs: mustprogress nounwind uwtable
define internal noundef zeroext i1 @_ZNSt17_Function_handlerIFvvESt5_BindIFZN12_GLOBAL__N_120InProcessThinBackend5startEjN4llvm13BitcodeModuleERKNS4_16FunctionImporter11ImportMapTyERKNS4_8DenseSetINS4_9ValueInfoENS4_12DenseMapInfoISB_vEEEERKSt3mapImNS4_11GlobalValue12LinkageTypesESt4lessImESaISt4pairIKmSJ_EEERNS4_9MapVectorINS4_9StringRefES5_NS4_8DenseMapISU_jNSC_ISU_vEENS4_6detail12DenseMapPairISU_jEEEENS4_11SmallVectorISM_ISU_S5_ELj0EEEEEEUlS5_RNS4_18ModuleSummaryIndexES9_SG_SS_RKNSV_ImPNS4_18GlobalValueSummaryENSC_ImvEENSY_ImS19_EEEES15_E_S5_St17reference_wrapperIS16_ES1G_IS8_ES1G_ISF_ES1G_ISR_ES1G_IS1D_ES1G_IS14_EEEE10_M_managerERSt9_Any_dataRKS1Q_St18_Manager_operation(ptr noundef nonnull align 8 dereferenceable(16) %0, ptr noundef nonnull align 8 dereferenceable(16) %1, i32 noundef %2) #1 align 2 {
  %4 = alloca ptr, align 8
  %5 = alloca ptr, align 8
  %6 = alloca i32, align 4
  store ptr %0, ptr %4, align 8
  store ptr %1, ptr %5, align 8
  store i32 %2, ptr %6, align 4
  %7 = load i32, ptr %6, align 4
  switch i32 %7, label %13 [
    i32 1, label %8
  ]

8:                                                ; preds = %3
  %9 = load ptr, ptr %5, align 8
  %10 = call noundef ptr @_ZNSt14_Function_base13_Base_managerISt5_BindIFZN12_GLOBAL__N_120InProcessThinBackend5startEjN4llvm13BitcodeModuleERKNS4_16FunctionImporter11ImportMapTyERKNS4_8DenseSetINS4_9ValueInfoENS4_12DenseMapInfoISB_vEEEERKSt3mapImNS4_11GlobalValue12LinkageTypesESt4lessImESaISt4pairIKmSJ_EEERNS4_9MapVectorINS4_9StringRefES5_NS4_8DenseMapISU_jNSC_ISU_vEENS4_6detail12DenseMapPairISU_jEEEENS4_11SmallVectorISM_ISU_S5_ELj0EEEEEEUlS5_RNS4_18ModuleSummaryIndexES9_SG_SS_RKNSV_ImPNS4_18GlobalValueSummaryENSC_ImvEENSY_ImS19_EEEES15_E_S5_St17reference_wrapperIS16_ES1G_IS8_ES1G_ISF_ES1G_ISR_ES1G_IS1D_ES1G_IS14_EEEE14_M_get_pointerERKSt9_Any_data(ptr noundef nonnull align 8 dereferenceable(16) %9) #2
  %11 = load ptr, ptr %4, align 8
  %12 = call noundef nonnull align 8 dereferenceable(8) ptr @_ZNSt9_Any_data9_M_accessIPSt5_BindIFZN12_GLOBAL__N_120InProcessThinBackend5startEjN4llvm13BitcodeModuleERKNS4_16FunctionImporter11ImportMapTyERKNS4_8DenseSetINS4_9ValueInfoENS4_12DenseMapInfoISB_vEEEERKSt3mapImNS4_11GlobalValue12LinkageTypesESt4lessImESaISt4pairIKmSJ_EEERNS4_9MapVectorINS4_9StringRefES5_NS4_8DenseMapISU_jNSC_ISU_vEENS4_6detail12DenseMapPairISU_jEEEENS4_11SmallVectorISM_ISU_S5_ELj0EEEEEEUlS5_RNS4_18ModuleSummaryIndexES9_SG_SS_RKNSV_ImPNS4_18GlobalValueSummaryENSC_ImvEENSY_ImS19_EEEES15_E_S5_St17reference_wrapperIS16_ES1G_IS8_ES1G_ISF_ES1G_ISR_ES1G_IS1D_ES1G_IS14_EEEEERT_v(ptr noundef nonnull align 8 dereferenceable(16) %11) #2
  store ptr %10, ptr %12, align 8
  br label %18

13:                                               ; preds = %3
  %14 = load ptr, ptr %4, align 8
  %15 = load ptr, ptr %5, align 8
  %16 = load i32, ptr %6, align 4
  %17 = call noundef zeroext i1 @_ZNSt14_Function_base13_Base_managerISt5_BindIFZN12_GLOBAL__N_120InProcessThinBackend5startEjN4llvm13BitcodeModuleERKNS4_16FunctionImporter11ImportMapTyERKNS4_8DenseSetINS4_9ValueInfoENS4_12DenseMapInfoISB_vEEEERKSt3mapImNS4_11GlobalValue12LinkageTypesESt4lessImESaISt4pairIKmSJ_EEERNS4_9MapVectorINS4_9StringRefES5_NS4_8DenseMapISU_jNSC_ISU_vEENS4_6detail12DenseMapPairISU_jEEEENS4_11SmallVectorISM_ISU_S5_ELj0EEEEEEUlS5_RNS4_18ModuleSummaryIndexES9_SG_SS_RKNSV_ImPNS4_18GlobalValueSummaryENSC_ImvEENSY_ImS19_EEEES15_E_S5_St17reference_wrapperIS16_ES1G_IS8_ES1G_ISF_ES1G_ISR_ES1G_IS1D_ES1G_IS14_EEEE10_M_managerERSt9_Any_dataRKS1Q_St18_Manager_operation(ptr noundef nonnull align 8 dereferenceable(16) %14, ptr noundef nonnull align 8 dereferenceable(16) %15, i32 noundef %16)
  br label %18

18:                                               ; preds = %13, %8
  ret i1 false
}