; Function Attrs: mustprogress nounwind uwtable
define internal noundef zeroext i1 @_ZNSt17_Function_handlerIFvvESt5_BindIFZN12_GLOBAL__N_120InProcessThinBackend5startEjN4llvm13BitcodeModuleERKNS4_16FunctionImporter11ImportMapTyERKNS4_8DenseSetINS4_9ValueInfoENS4_12DenseMapInfoISB_vEEEERKSt3mapImNS4_11GlobalValue12LinkageTypesESt4lessImESaISt4pairIKmSJ_EEERNS4_9MapVectorINS4_9StringRefES5_NS4_8DenseMapISU_jNSC_ISU_vEENS4_6detail12DenseMapPairISU_jEEEENS4_11SmallVectorISM_ISU_S5_ELj0EEEEEEUlS5_RNS4_18ModuleSummaryIndexES9_SG_SS_RKNSV_ImPNS4_18GlobalValueSummaryENSC_ImvEENSY_ImS19_EEEES15_E_S5_St17reference_wrapperIS16_ES1G_IS8_ES1G_ISF_ES1G_ISR_ES1G_IS1D_ES1G_IS14_EEEE10_M_managerERSt9_Any_dataRKS1Q_St18_Manager_operation(ptr noundef nonnull align 8 captures(none) dereferenceable(16) %0, ptr noundef nonnull readonly align 8 captures(none) dereferenceable(16) %1, i32 noundef %2) #0 align 2 {
  switch i32 %2, label %_ZNSt14_Function_base13_Base_managerISt5_BindIFZN12_GLOBAL__N_120InProcessThinBackend5startEjN4llvm13BitcodeModuleERKNS4_16FunctionImporter11ImportMapTyERKNS4_8DenseSetINS4_9ValueInfoENS4_12DenseMapInfoISB_vEEEERKSt3mapImNS4_11GlobalValue12LinkageTypesESt4lessImESaISt4pairIKmSJ_EEERNS4_9MapVectorINS4_9StringRefES5_NS4_8DenseMapISU_jNSC_ISU_vEENS4_6detail12DenseMapPairISU_jEEEENS4_11SmallVectorISM_ISU_S5_ELj0EEEEEEUlS5_RNS4_18ModuleSummaryIndexES9_SG_SS_RKNSV_ImPNS4_18GlobalValueSummaryENSC_ImvEENSY_ImS19_EEEES15_E_S5_St17reference_wrapperIS16_ES1G_IS8_ES1G_ISF_ES1G_ISR_ES1G_IS1D_ES1G_IS14_EEEE10_M_managerERSt9_Any_dataRKS1Q_St18_Manager_operation.exit [
    i32 1, label %4
    i32 0, label %5
    i32 3, label %8
    i32 2, label %6
  ]

4:                                                ; preds = %3
  %.val = load ptr, ptr %1, align 8
  store ptr %.val, ptr %0, align 8
  br label %_ZNSt14_Function_base13_Base_managerISt5_BindIFZN12_GLOBAL__N_120InProcessThinBackend5startEjN4llvm13BitcodeModuleERKNS4_16FunctionImporter11ImportMapTyERKNS4_8DenseSetINS4_9ValueInfoENS4_12DenseMapInfoISB_vEEEERKSt3mapImNS4_11GlobalValue12LinkageTypesESt4lessImESaISt4pairIKmSJ_EEERNS4_9MapVectorINS4_9StringRefES5_NS4_8DenseMapISU_jNSC_ISU_vEENS4_6detail12DenseMapPairISU_jEEEENS4_11SmallVectorISM_ISU_S5_ELj0EEEEEEUlS5_RNS4_18ModuleSummaryIndexES9_SG_SS_RKNSV_ImPNS4_18GlobalValueSummaryENSC_ImvEENSY_ImS19_EEEES15_E_S5_St17reference_wrapperIS16_ES1G_IS8_ES1G_ISF_ES1G_ISR_ES1G_IS1D_ES1G_IS14_EEEE10_M_managerERSt9_Any_dataRKS1Q_St18_Manager_operation.exit

5:                                                ; preds = %3
  store ptr null, ptr %0, align 8
  br label %_ZNSt14_Function_base13_Base_managerISt5_BindIFZN12_GLOBAL__N_120InProcessThinBackend5startEjN4llvm13BitcodeModuleERKNS4_16FunctionImporter11ImportMapTyERKNS4_8DenseSetINS4_9ValueInfoENS4_12DenseMapInfoISB_vEEEERKSt3mapImNS4_11GlobalValue12LinkageTypesESt4lessImESaISt4pairIKmSJ_EEERNS4_9MapVectorINS4_9StringRefES5_NS4_8DenseMapISU_jNSC_ISU_vEENS4_6detail12DenseMapPairISU_jEEEENS4_11SmallVectorISM_ISU_S5_ELj0EEEEEEUlS5_RNS4_18ModuleSummaryIndexES9_SG_SS_RKNSV_ImPNS4_18GlobalValueSummaryENSC_ImvEENSY_ImS19_EEEES15_E_S5_St17reference_wrapperIS16_ES1G_IS8_ES1G_ISF_ES1G_ISR_ES1G_IS1D_ES1G_IS14_EEEE10_M_managerERSt9_Any_dataRKS1Q_St18_Manager_operation.exit

6:                                                ; preds = %3
  %.val5 = load ptr, ptr %1, align 8
  %7 = tail call noalias noundef nonnull dereferenceable(128) ptr @_Znwm(i64 noundef 128) #29
  tail call void @llvm.memcpy.p0.p0.i64(ptr noundef nonnull align 16 dereferenceable(128) %7, ptr noundef nonnull readonly align 8 dereferenceable(128) %.val5, i64 128, i1 false)
  store ptr %7, ptr %0, align 8
  br label %_ZNSt14_Function_base13_Base_managerISt5_BindIFZN12_GLOBAL__N_120InProcessThinBackend5startEjN4llvm13BitcodeModuleERKNS4_16FunctionImporter11ImportMapTyERKNS4_8DenseSetINS4_9ValueInfoENS4_12DenseMapInfoISB_vEEEERKSt3mapImNS4_11GlobalValue12LinkageTypesESt4lessImESaISt4pairIKmSJ_EEERNS4_9MapVectorINS4_9StringRefES5_NS4_8DenseMapISU_jNSC_ISU_vEENS4_6detail12DenseMapPairISU_jEEEENS4_11SmallVectorISM_ISU_S5_ELj0EEEEEEUlS5_RNS4_18ModuleSummaryIndexES9_SG_SS_RKNSV_ImPNS4_18GlobalValueSummaryENSC_ImvEENSY_ImS19_EEEES15_E_S5_St17reference_wrapperIS16_ES1G_IS8_ES1G_ISF_ES1G_ISR_ES1G_IS1D_ES1G_IS14_EEEE10_M_managerERSt9_Any_dataRKS1Q_St18_Manager_operation.exit

8:                                                ; preds = %3
  %.val6.i = load ptr, ptr %0, align 8
  %9 = icmp eq ptr %.val6.i, null
  br i1 %9, label %_ZNSt14_Function_base13_Base_managerISt5_BindIFZN12_GLOBAL__N_120InProcessThinBackend5startEjN4llvm13BitcodeModuleERKNS4_16FunctionImporter11ImportMapTyERKNS4_8DenseSetINS4_9ValueInfoENS4_12DenseMapInfoISB_vEEEERKSt3mapImNS4_11GlobalValue12LinkageTypesESt4lessImESaISt4pairIKmSJ_EEERNS4_9MapVectorINS4_9StringRefES5_NS4_8DenseMapISU_jNSC_ISU_vEENS4_6detail12DenseMapPairISU_jEEEENS4_11SmallVectorISM_ISU_S5_ELj0EEEEEEUlS5_RNS4_18ModuleSummaryIndexES9_SG_SS_RKNSV_ImPNS4_18GlobalValueSummaryENSC_ImvEENSY_ImS19_EEEES15_E_S5_St17reference_wrapperIS16_ES1G_IS8_ES1G_ISF_ES1G_ISR_ES1G_IS1D_ES1G_IS14_EEEE10_M_managerERSt9_Any_dataRKS1Q_St18_Manager_operation.exit, label %10

10:                                               ; preds = %8
  tail call void @_ZdlPvm(ptr noundef nonnull %.val6.i, i64 noundef 128) #31
  br label %_ZNSt14_Function_base13_Base_managerISt5_BindIFZN12_GLOBAL__N_120InProcessThinBackend5startEjN4llvm13BitcodeModuleERKNS4_16FunctionImporter11ImportMapTyERKNS4_8DenseSetINS4_9ValueInfoENS4_12DenseMapInfoISB_vEEEERKSt3mapImNS4_11GlobalValue12LinkageTypesESt4lessImESaISt4pairIKmSJ_EEERNS4_9MapVectorINS4_9StringRefES5_NS4_8DenseMapISU_jNSC_ISU_vEENS4_6detail12DenseMapPairISU_jEEEENS4_11SmallVectorISM_ISU_S5_ELj0EEEEEEUlS5_RNS4_18ModuleSummaryIndexES9_SG_SS_RKNSV_ImPNS4_18GlobalValueSummaryENSC_ImvEENSY_ImS19_EEEES15_E_S5_St17reference_wrapperIS16_ES1G_IS8_ES1G_ISF_ES1G_ISR_ES1G_IS1D_ES1G_IS14_EEEE10_M_managerERSt9_Any_dataRKS1Q_St18_Manager_operation.exit

_ZNSt14_Function_base13_Base_managerISt5_BindIFZN12_GLOBAL__N_120InProcessThinBackend5startEjN4llvm13BitcodeModuleERKNS4_16FunctionImporter11ImportMapTyERKNS4_8DenseSetINS4_9ValueInfoENS4_12DenseMapInfoISB_vEEEERKSt3mapImNS4_11GlobalValue12LinkageTypesESt4lessImESaISt4pairIKmSJ_EEERNS4_9MapVectorINS4_9StringRefES5_NS4_8DenseMapISU_jNSC_ISU_vEENS4_6detail12DenseMapPairISU_jEEEENS4_11SmallVectorISM_ISU_S5_ELj0EEEEEEUlS5_RNS4_18ModuleSummaryIndexES9_SG_SS_RKNSV_ImPNS4_18GlobalValueSummaryENSC_ImvEENSY_ImS19_EEEES15_E_S5_St17reference_wrapperIS16_ES1G_IS8_ES1G_ISF_ES1G_ISR_ES1G_IS1D_ES1G_IS14_EEEE10_M_managerERSt9_Any_dataRKS1Q_St18_Manager_operation.exit: ; preds = %3, %10, %8, %6, %5, %4
  ret i1 false
}